; Function Attrs: nounwind uwtable
define internal noundef ptr @tupleiter_next(ptr noundef captures(none) %0) #0 {
  %2 = getelementptr inbounds nuw i8, ptr %0, i64 24
  %3 = load ptr, ptr %2, align 8, !tbaa !127
  %4 = icmp eq ptr %3, null
  br i1 %4, label %_Py_NewRef.exit, label %5

5:                                                ; preds = %1
  %6 = getelementptr inbounds nuw i8, ptr %0, i64 16
  %7 = load i64, ptr %6, align 8, !tbaa !125
  %8 = getelementptr i8, ptr %3, i64 16
  %.val = load i64, ptr %8, align 8, !tbaa !107
  %9 = icmp slt i64 %7, %.val
  br i1 %9, label %10, label %19

10:                                               ; preds = %5
  %11 = getelementptr inbounds nuw i8, ptr %3, i64 24
  %12 = getelementptr [1 x ptr], ptr %11, i64 0, i64 %7
  %13 = load ptr, ptr %12, align 8, !tbaa !25
  %14 = add nsw i64 %7, 1
  store i64 %14, ptr %6, align 8, !tbaa !125
  %15 = load i32, ptr %13, align 8, !tbaa !108
  %16 = icmp slt i32 %15, 0
  br i1 %16, label %_Py_NewRef.exit, label %17

17:                                               ; preds = %10
  %18 = add nuw i32 %15, 1
  store i32 %18, ptr %13, align 8, !tbaa !108
  br label %_Py_NewRef.exit

19:                                               ; preds = %5
  store ptr null, ptr %2, align 8, !tbaa !127
  %20 = load i32, ptr %3, align 8, !tbaa !108
  %.not.i = icmp sgt i32 %20, -1
  br i1 %.not.i, label %21, label %_Py_NewRef.exit

21:                                               ; preds = %19
  %22 = add nsw i32 %20, -1
  store i32 %22, ptr %3, align 8, !tbaa !108
  %23 = icmp eq i32 %22, 0
  br i1 %23, label %24, label %_Py_NewRef.exit

24:                                               ; preds = %21
  tail call void @_Py_Dealloc(ptr noundef nonnull %3) #9
  br label %_Py_NewRef.exit

_Py_NewRef.exit:                                  ; preds = %24, %21, %19, %17, %10, %1
  %.0 = phi ptr [ null, %1 ], [ %13, %10 ], [ %13, %17 ], [ null, %19 ], [ null, %21 ], [ null, %24 ]
  ret ptr %.0
}